target datalayout = "e-m:e-p270:32:32-p271:32:32-p272:64:64-i64:64-i128:128-f80:128-n8:16:32:64-S128"
target triple = "x86_64-pc-linux-gnu"

%struct.H5CX_node_t = type { %struct.H5CX_t, ptr }
%struct.H5CX_t = type { i64, ptr, i64, ptr, i64, ptr, i64, ptr, i64, ptr, i64, ptr, i64, i32, i64, i8, ptr, i8, ptr, i8, i32, i8, [3 x double], i8, i64, i8, i32, i8, %struct.H5Z_cb_t, i8, ptr, i8, %struct.H5T_vlen_alloc_info_t, i8, %struct.H5T_conv_cb_t, i8, i32, i8, i8, i8, i32, i8, i8, i32, i8, i8, i32, i8, i32, i8, i64, i8, i8, i8, i8, i8, ptr, i8, ptr, i8, i32, i8, i32, i8, %struct.H5VL_connector_prop_t, i8, ptr, i8 }
%struct.H5Z_cb_t = type { ptr, ptr }
%struct.H5T_vlen_alloc_info_t = type { ptr, ptr, ptr, ptr }
%struct.H5T_conv_cb_t = type { ptr, ptr }
%struct.H5VL_connector_prop_t = type { ptr, ptr }
%struct.H5VL_optional_args_t = type { i32, ptr }
%union.H5VL_native_file_optional_args_t = type { %struct.H5VL_native_file_get_page_buffering_stats_t }
%struct.H5VL_native_file_get_page_buffering_stats_t = type { ptr, ptr, ptr, ptr, ptr }
%struct.anon.9 = type { ptr }

@H5_libinit_g = external global i8, align 1
@H5_libterm_g = external global i8, align 1
@.str = private unnamed_addr constant [97 x i8] c"generated/home/dtcxzyw/WorkSpace/Projects/compilers/llvm-opt-benchmark/bench/hdf5/hdf5/src/H5F.c\00", align 1
@H5E_FUNC_g = external global i64, align 8
@H5E_CANTINIT_g = external global i64, align 8
@.str.1 = private unnamed_addr constant [30 x i8] c"library initialization failed\00", align 1
@H5F_init_g = external global i8, align 1
@.str.2 = private unnamed_addr constant [32 x i8] c"interface initialization failed\00", align 1
@H5E_CANTSET_g = external global i64, align 8
@.str.3 = private unnamed_addr constant [22 x i8] c"can't set API context\00", align 1
@H5E_ARGS_g = external global i64, align 8
@H5P_LST_DATASET_XFER_ID_g = external global i64, align 8
@H5E_FILE_g = external global i64, align 8
@H5E_CANTGET_g = external global i64, align 8
@H5E_BADVALUE_g = external global i64, align 8
@.str.45 = private unnamed_addr constant [14 x i8] c"not a file ID\00", align 1
@__func__.H5Fget_metadata_read_retry_info = private unnamed_addr constant [32 x i8] c"H5Fget_metadata_read_retry_info\00", align 1
@.str.96 = private unnamed_addr constant [15 x i8] c"no info struct\00", align 1
@.str.97 = private unnamed_addr constant [35 x i8] c"can't get metadata read retry info\00", align 1

; Function Attrs: nounwind uwtable
define i32 @H5Fget_metadata_read_retry_info(i64 noundef %0, ptr noundef %1) #0 {
  %3 = alloca i64, align 8
  %4 = alloca ptr, align 8
  %5 = alloca ptr, align 8
  %6 = alloca %struct.H5VL_optional_args_t, align 8
  %7 = alloca %union.H5VL_native_file_optional_args_t, align 8
  %8 = alloca i32, align 4
  %9 = alloca %struct.H5CX_node_t, align 8
  %10 = alloca i8, align 1
  %11 = alloca i8, align 1
  store i64 %0, ptr %3, align 8, !tbaa !3
  store ptr %1, ptr %4, align 8, !tbaa !60
  call void @llvm.lifetime.start.p0(i64 8, ptr %5) #5
  store ptr null, ptr %5, align 8, !tbaa !11
  call void @llvm.lifetime.start.p0(i64 16, ptr %6) #5
  call void @llvm.lifetime.start.p0(i64 40, ptr %7) #5
  call void @llvm.lifetime.start.p0(i64 4, ptr %8) #5
  store i32 0, ptr %8, align 4, !tbaa !18
  call void @llvm.lifetime.start.p0(i64 480, ptr %9) #5
  call void @llvm.memset.p0.i64(ptr align 8 %9, i8 0, i64 480, i1 false)
  call void @llvm.lifetime.start.p0(i64 1, ptr %10) #5
  store i8 0, ptr %10, align 1, !tbaa !7
  call void @llvm.lifetime.start.p0(i64 1, ptr %11) #5
  store i8 0, ptr %11, align 1, !tbaa !7
  br label %12

12:                                               ; preds = %2
  %13 = load i8, ptr @H5_libinit_g, align 1, !tbaa !7, !range !9, !noundef !10
  %14 = trunc i8 %13 to i1
  br i1 %14, label %19, label %15

15:                                               ; preds = %12
  %16 = load i8, ptr @H5_libterm_g, align 1, !tbaa !7, !range !9, !noundef !10
  %17 = trunc i8 %16 to i1
  %18 = xor i1 %17, true
  br label %19

19:                                               ; preds = %15, %12
  %20 = phi i1 [ false, %12 ], [ %18, %15 ]
  %21 = xor i1 %20, true
  %22 = xor i1 %21, true
  %23 = zext i1 %22 to i32
  %24 = sext i32 %23 to i64
  %25 = call i64 @llvm.expect.i64(i64 %24, i64 0)
  %26 = icmp ne i64 %25, 0
  br i1 %26, label %27, label %56

27:                                               ; preds = %19
  %28 = call i32 @H5_init_library()
  %29 = icmp slt i32 %28, 0
  %30 = xor i1 %29, true
  %31 = xor i1 %30, true
  %32 = zext i1 %31 to i32
  %33 = sext i32 %32 to i64
  %34 = call i64 @llvm.expect.i64(i64 %33, i64 0)
  %35 = icmp ne i64 %34, 0
  br i1 %35, label %36, label %55

36:                                               ; preds = %27
  br label %37

37:                                               ; preds = %36
  br label %38

38:                                               ; preds = %37
  br label %39

39:                                               ; preds = %38
  %40 = load i64, ptr @H5E_FUNC_g, align 8, !tbaa !3
  %41 = load i64, ptr @H5E_CANTINIT_g, align 8, !tbaa !3
  %42 = call i32 (ptr, ptr, i32, i64, i64, ptr, ...) @H5E_printf_stack(ptr noundef @.str, ptr noundef @__func__.H5Fget_metadata_read_retry_info, i32 noundef 2099, i64 noundef %40, i64 noundef %41, ptr noundef @.str.1)
  br label %43

43:                                               ; preds = %39
  br label %44

44:                                               ; preds = %43
  store i8 1, ptr %11, align 1, !tbaa !7
  %45 = load i8, ptr %11, align 1, !tbaa !7, !range !9, !noundef !10
  %46 = trunc i8 %45 to i1
  %47 = zext i1 %46 to i8
  store i8 %47, ptr %11, align 1, !tbaa !7
  br label %48

48:                                               ; preds = %44
  br label %49

49:                                               ; preds = %48
  br label %50

50:                                               ; preds = %49
  store i32 -1, ptr %8, align 4, !tbaa !18
  br label %203

51:                                               ; No predecessors!
  br label %52

52:                                               ; preds = %51
  br label %53

53:                                               ; preds = %52
  br label %54

54:                                               ; preds = %53
  br label %55

55:                                               ; preds = %54, %27
  br label %56

56:                                               ; preds = %55, %19
  %57 = load i8, ptr @H5F_init_g, align 1, !tbaa !7, !range !9, !noundef !10
  %58 = trunc i8 %57 to i1
  br i1 %58, label %63, label %59

59:                                               ; preds = %56
  %60 = load i8, ptr @H5_libterm_g, align 1, !tbaa !7, !range !9, !noundef !10
  %61 = trunc i8 %60 to i1
  %62 = xor i1 %61, true
  br label %63

63:                                               ; preds = %59, %56
  %64 = phi i1 [ false, %56 ], [ %62, %59 ]
  %65 = xor i1 %64, true
  %66 = xor i1 %65, true
  %67 = zext i1 %66 to i32
  %68 = sext i32 %67 to i64
  %69 = call i64 @llvm.expect.i64(i64 %68, i64 0)
  %70 = icmp ne i64 %69, 0
  br i1 %70, label %71, label %94

71:                                               ; preds = %63
  store i8 1, ptr @H5F_init_g, align 1, !tbaa !7
  %72 = call i32 @H5F__init_package()
  %73 = icmp slt i32 %72, 0
  br i1 %73, label %74, label %93

74:                                               ; preds = %71
  store i8 0, ptr @H5F_init_g, align 1, !tbaa !7
  br label %75

75:                                               ; preds = %74
  br label %76

76:                                               ; preds = %75
  br label %77

77:                                               ; preds = %76
  %78 = load i64, ptr @H5E_FUNC_g, align 8, !tbaa !3
  %79 = load i64, ptr @H5E_CANTINIT_g, align 8, !tbaa !3
  %80 = call i32 (ptr, ptr, i32, i64, i64, ptr, ...) @H5E_printf_stack(ptr noundef @.str, ptr noundef @__func__.H5Fget_metadata_read_retry_info, i32 noundef 2099, i64 noundef %78, i64 noundef %79, ptr noundef @.str.2)
  br label %81

81:                                               ; preds = %77
  br label %82

82:                                               ; preds = %81
  store i8 1, ptr %11, align 1, !tbaa !7
  %83 = load i8, ptr %11, align 1, !tbaa !7, !range !9, !noundef !10
  %84 = trunc i8 %83 to i1
  %85 = zext i1 %84 to i8
  store i8 %85, ptr %11, align 1, !tbaa !7
  br label %86

86:                                               ; preds = %82
  br label %87

87:                                               ; preds = %86
  br label %88

88:                                               ; preds = %87
  store i32 -1, ptr %8, align 4, !tbaa !18
  br label %203

89:                                               ; No predecessors!
  br label %90

90:                                               ; preds = %89
  br label %91

91:                                               ; preds = %90
  br label %92

92:                                               ; preds = %91
  br label %93

93:                                               ; preds = %92, %71
  br label %94

94:                                               ; preds = %93, %63
  br label %95

95:                                               ; preds = %94
  br label %96

96:                                               ; preds = %95
  br label %97

97:                                               ; preds = %96
  %98 = call i32 @H5CX_push(ptr noundef %9)
  %99 = icmp slt i32 %98, 0
  %100 = xor i1 %99, true
  %101 = xor i1 %100, true
  %102 = zext i1 %101 to i32
  %103 = sext i32 %102 to i64
  %104 = call i64 @llvm.expect.i64(i64 %103, i64 0)
  %105 = icmp ne i64 %104, 0
  br i1 %105, label %106, label %125

106:                                              ; preds = %97
  br label %107

107:                                              ; preds = %106
  br label %108

108:                                              ; preds = %107
  br label %109

109:                                              ; preds = %108
  %110 = load i64, ptr @H5E_FUNC_g, align 8, !tbaa !3
  %111 = load i64, ptr @H5E_CANTSET_g, align 8, !tbaa !3
  %112 = call i32 (ptr, ptr, i32, i64, i64, ptr, ...) @H5E_printf_stack(ptr noundef @.str, ptr noundef @__func__.H5Fget_metadata_read_retry_info, i32 noundef 2099, i64 noundef %110, i64 noundef %111, ptr noundef @.str.3)
  br label %113

113:                                              ; preds = %109
  br label %114

114:                                              ; preds = %113
  store i8 1, ptr %11, align 1, !tbaa !7
  %115 = load i8, ptr %11, align 1, !tbaa !7, !range !9, !noundef !10
  %116 = trunc i8 %115 to i1
  %117 = zext i1 %116 to i8
  store i8 %117, ptr %11, align 1, !tbaa !7
  br label %118

118:                                              ; preds = %114
  br label %119

119:                                              ; preds = %118
  br label %120

120:                                              ; preds = %119
  store i32 -1, ptr %8, align 4, !tbaa !18
  br label %203

121:                                              ; No predecessors!
  br label %122

122:                                              ; preds = %121
  br label %123

123:                                              ; preds = %122
  br label %124

124:                                              ; preds = %123
  br label %126

125:                                              ; preds = %97
  store i8 1, ptr %10, align 1, !tbaa !7
  br label %126

126:                                              ; preds = %125, %124
  br label %127

127:                                              ; preds = %126
  br label %128

128:                                              ; preds = %127
  %129 = call i32 @H5E_clear_stack()
  %130 = load ptr, ptr %4, align 8, !tbaa !60
  %131 = icmp ne ptr %130, null
  br i1 %131, label %151, label %132

132:                                              ; preds = %128
  br label %133

133:                                              ; preds = %132
  br label %134

134:                                              ; preds = %133
  br label %135

135:                                              ; preds = %134
  %136 = load i64, ptr @H5E_ARGS_g, align 8, !tbaa !3
  %137 = load i64, ptr @H5E_BADVALUE_g, align 8, !tbaa !3
  %138 = call i32 (ptr, ptr, i32, i64, i64, ptr, ...) @H5E_printf_stack(ptr noundef @.str, ptr noundef @__func__.H5Fget_metadata_read_retry_info, i32 noundef 2103, i64 noundef %136, i64 noundef %137, ptr noundef @.str.96)
  br label %139

139:                                              ; preds = %135
  br label %140

140:                                              ; preds = %139
  store i8 1, ptr %11, align 1, !tbaa !7
  %141 = load i8, ptr %11, align 1, !tbaa !7, !range !9, !noundef !10
  %142 = trunc i8 %141 to i1
  %143 = zext i1 %142 to i8
  store i8 %143, ptr %11, align 1, !tbaa !7
  br label %144

144:                                              ; preds = %140
  br label %145

145:                                              ; preds = %144
  br label %146

146:                                              ; preds = %145
  store i32 -1, ptr %8, align 4, !tbaa !18
  br label %203

147:                                              ; No predecessors!
  br label %148

148:                                              ; preds = %147
  br label %149

149:                                              ; preds = %148
  br label %150

150:                                              ; preds = %149
  br label %151

151:                                              ; preds = %150, %128
  %152 = load i64, ptr %3, align 8, !tbaa !3
  %153 = call ptr @H5VL_vol_object_verify(i64 noundef %152, i32 noundef 1)
  store ptr %153, ptr %5, align 8, !tbaa !11
  %154 = icmp eq ptr null, %153
  br i1 %154, label %155, label %174

155:                                              ; preds = %151
  br label %156

156:                                              ; preds = %155
  br label %157

157:                                              ; preds = %156
  br label %158

158:                                              ; preds = %157
  %159 = load i64, ptr @H5E_ARGS_g, align 8, !tbaa !3
  %160 = load i64, ptr @H5E_BADVALUE_g, align 8, !tbaa !3
  %161 = call i32 (ptr, ptr, i32, i64, i64, ptr, ...) @H5E_printf_stack(ptr noundef @.str, ptr noundef @__func__.H5Fget_metadata_read_retry_info, i32 noundef 2107, i64 noundef %159, i64 noundef %160, ptr noundef @.str.45)
  br label %162

162:                                              ; preds = %158
  br label %163

163:                                              ; preds = %162
  store i8 1, ptr %11, align 1, !tbaa !7
  %164 = load i8, ptr %11, align 1, !tbaa !7, !range !9, !noundef !10
  %165 = trunc i8 %164 to i1
  %166 = zext i1 %165 to i8
  store i8 %166, ptr %11, align 1, !tbaa !7
  br label %167

167:                                              ; preds = %163
  br label %168

168:                                              ; preds = %167
  br label %169

169:                                              ; preds = %168
  store i32 -1, ptr %8, align 4, !tbaa !18
  br label %203

170:                                              ; No predecessors!
  br label %171

171:                                              ; preds = %170
  br label %172

172:                                              ; preds = %171
  br label %173

173:                                              ; preds = %172
  br label %174

174:                                              ; preds = %173, %151
  %175 = load ptr, ptr %4, align 8, !tbaa !60
  %176 = getelementptr inbounds nuw %struct.anon.9, ptr %7, i32 0, i32 0
  store ptr %175, ptr %176, align 8, !tbaa !17
  %177 = getelementptr inbounds nuw %struct.H5VL_optional_args_t, ptr %6, i32 0, i32 0
  store i32 12, ptr %177, align 8, !tbaa !29
  %178 = getelementptr inbounds nuw %struct.H5VL_optional_args_t, ptr %6, i32 0, i32 1
  store ptr %7, ptr %178, align 8, !tbaa !31
  %179 = load ptr, ptr %5, align 8, !tbaa !11
  %180 = load i64, ptr @H5P_LST_DATASET_XFER_ID_g, align 8, !tbaa !3
  %181 = call i32 @H5VL_file_optional(ptr noundef %179, ptr noundef %6, i64 noundef %180, ptr noundef null)
  %182 = icmp slt i32 %181, 0
  br i1 %182, label %183, label %202

183:                                              ; preds = %174
  br label %184

184:                                              ; preds = %183
  br label %185

185:                                              ; preds = %184
  br label %186

186:                                              ; preds = %185
  %187 = load i64, ptr @H5E_FILE_g, align 8, !tbaa !3
  %188 = load i64, ptr @H5E_CANTGET_g, align 8, !tbaa !3
  %189 = call i32 (ptr, ptr, i32, i64, i64, ptr, ...) @H5E_printf_stack(ptr noundef @.str, ptr noundef @__func__.H5Fget_metadata_read_retry_info, i32 noundef 2116, i64 noundef %187, i64 noundef %188, ptr noundef @.str.97)
  br label %190

190:                                              ; preds = %186
  br label %191

191:                                              ; preds = %190
  store i8 1, ptr %11, align 1, !tbaa !7
  %192 = load i8, ptr %11, align 1, !tbaa !7, !range !9, !noundef !10
  %193 = trunc i8 %192 to i1
  %194 = zext i1 %193 to i8
  store i8 %194, ptr %11, align 1, !tbaa !7
  br label %195

195:                                              ; preds = %191
  br label %196

196:                                              ; preds = %195
  br label %197

197:                                              ; preds = %196
  store i32 -1, ptr %8, align 4, !tbaa !18
  br label %203

198:                                              ; No predecessors!
  br label %199

199:                                              ; preds = %198
  br label %200

200:                                              ; preds = %199
  br label %201

201:                                              ; preds = %200
  br label %202

202:                                              ; preds = %201, %174
  br label %203

203:                                              ; preds = %202, %197, %169, %146, %120, %88, %50
  %204 = load i8, ptr %10, align 1, !tbaa !7, !range !9, !noundef !10
  %205 = trunc i8 %204 to i1
  %206 = xor i1 %205, true
  %207 = xor i1 %206, true
  %208 = zext i1 %207 to i32
  %209 = sext i32 %208 to i64
  %210 = call i64 @llvm.expect.i64(i64 %209, i64 1)
  %211 = icmp ne i64 %210, 0
  br i1 %211, label %212, label %214

212:                                              ; preds = %203
  %213 = call i32 @H5CX_pop(i1 noundef zeroext true)
  store i8 0, ptr %10, align 1, !tbaa !7
  br label %214

214:                                              ; preds = %212, %203
  %215 = load i8, ptr %11, align 1, !tbaa !7, !range !9, !noundef !10
  %216 = trunc i8 %215 to i1
  %217 = xor i1 %216, true
  %218 = xor i1 %217, true
  %219 = zext i1 %218 to i32
  %220 = sext i32 %219 to i64
  %221 = call i64 @llvm.expect.i64(i64 %220, i64 0)
  %222 = icmp ne i64 %221, 0
  br i1 %222, label %223, label %225

223:                                              ; preds = %214
  %224 = call i32 @H5E_dump_api_stack()
  br label %225

225:                                              ; preds = %223, %214
  %226 = load i32, ptr %8, align 4, !tbaa !18
  call void @llvm.lifetime.end.p0(i64 1, ptr %11) #5
  call void @llvm.lifetime.end.p0(i64 1, ptr %10) #5
  call void @llvm.lifetime.end.p0(i64 480, ptr %9) #5
  call void @llvm.lifetime.end.p0(i64 4, ptr %8) #5
  call void @llvm.lifetime.end.p0(i64 40, ptr %7) #5
  call void @llvm.lifetime.end.p0(i64 16, ptr %6) #5
  call void @llvm.lifetime.end.p0(i64 8, ptr %5) #5
  ret i32 %226
}