; Function Attrs: nounwind uwtable
define range(i32 -1, 1) i32 @H5Fget_metadata_read_retry_info(i64 noundef %0, ptr noundef %1) local_unnamed_addr #0 {
  %3 = alloca %struct.H5VL_optional_args_t, align 8
  %4 = alloca %union.H5VL_native_file_optional_args_t, align 8
  %5 = alloca %struct.H5CX_node_t, align 8
  call void @llvm.lifetime.start.p0(i64 16, ptr nonnull %3) #6
  call void @llvm.lifetime.start.p0(i64 40, ptr nonnull %4) #6
  call void @llvm.lifetime.start.p0(i64 480, ptr nonnull %5) #6
  call void @llvm.memset.p0.i64(ptr noundef nonnull align 8 dereferenceable(480) %5, i8 0, i64 480, i1 false)
  %6 = load i8, ptr @H5_libinit_g, align 1, !tbaa !3, !range !7, !noundef !8
  %7 = trunc nuw i8 %6 to i1
  %8 = load i8, ptr @H5_libterm_g, align 1, !range !7
  %9 = trunc nuw i8 %8 to i1
  %10 = select i1 %7, i1 true, i1 %9
  br i1 %10, label %18, label %11, !prof !9

11:                                               ; preds = %2
  %12 = tail call i32 @H5_init_library() #6
  %13 = icmp slt i32 %12, 0
  br i1 %13, label %14, label %._crit_edge, !prof !10

._crit_edge:                                      ; preds = %11
  %.pre = load i8, ptr @H5_libterm_g, align 1, !range !7
  br label %18

14:                                               ; preds = %11
  %15 = load i64, ptr @H5E_FUNC_g, align 8, !tbaa !11
  %16 = load i64, ptr @H5E_CANTINIT_g, align 8, !tbaa !11
  %17 = tail call i32 (ptr, ptr, i32, i64, i64, ptr, ...) @H5E_printf_stack(ptr noundef nonnull @.str, ptr noundef nonnull @__func__.H5Fget_metadata_read_retry_info, i32 noundef 2099, i64 noundef %15, i64 noundef %16, ptr noundef nonnull @.str.1) #6
  br label %.thread24

18:                                               ; preds = %._crit_edge, %2
  %19 = phi i8 [ %.pre, %._crit_edge ], [ %8, %2 ]
  %20 = load i8, ptr @H5F_init_g, align 1, !tbaa !3, !range !7, !noundef !8
  %21 = trunc nuw i8 %20 to i1
  %22 = trunc nuw i8 %19 to i1
  %23 = select i1 %21, i1 true, i1 %22
  br i1 %23, label %31, label %24, !prof !9

24:                                               ; preds = %18
  store i8 1, ptr @H5F_init_g, align 1, !tbaa !3
  %25 = tail call i32 @H5F__init_package() #6
  %26 = icmp slt i32 %25, 0
  br i1 %26, label %27, label %31, !prof !13

27:                                               ; preds = %24
  store i8 0, ptr @H5F_init_g, align 1, !tbaa !3
  %28 = load i64, ptr @H5E_FUNC_g, align 8, !tbaa !11
  %29 = load i64, ptr @H5E_CANTINIT_g, align 8, !tbaa !11
  %30 = tail call i32 (ptr, ptr, i32, i64, i64, ptr, ...) @H5E_printf_stack(ptr noundef nonnull @.str, ptr noundef nonnull @__func__.H5Fget_metadata_read_retry_info, i32 noundef 2099, i64 noundef %28, i64 noundef %29, ptr noundef nonnull @.str.2) #6
  br label %.thread24

31:                                               ; preds = %18, %24
  %32 = call i32 @H5CX_push(ptr noundef nonnull %5) #6
  %33 = icmp slt i32 %32, 0
  br i1 %33, label %34, label %38, !prof !10

34:                                               ; preds = %31
  %35 = load i64, ptr @H5E_FUNC_g, align 8, !tbaa !11
  %36 = load i64, ptr @H5E_CANTSET_g, align 8, !tbaa !11
  %37 = call i32 (ptr, ptr, i32, i64, i64, ptr, ...) @H5E_printf_stack(ptr noundef nonnull @.str, ptr noundef nonnull @__func__.H5Fget_metadata_read_retry_info, i32 noundef 2099, i64 noundef %35, i64 noundef %36, ptr noundef nonnull @.str.3) #6
  br label %.thread24

38:                                               ; preds = %31
  %39 = call i32 @H5E_clear_stack() #6
  %.not = icmp eq ptr %1, null
  br i1 %.not, label %40, label %44, !prof !14

40:                                               ; preds = %38
  %41 = load i64, ptr @H5E_ARGS_g, align 8, !tbaa !11
  %42 = load i64, ptr @H5E_BADVALUE_g, align 8, !tbaa !11
  %43 = call i32 (ptr, ptr, i32, i64, i64, ptr, ...) @H5E_printf_stack(ptr noundef nonnull @.str, ptr noundef nonnull @__func__.H5Fget_metadata_read_retry_info, i32 noundef 2103, i64 noundef %41, i64 noundef %42, ptr noundef nonnull @.str.96) #6
  br label %.thread30

44:                                               ; preds = %38
  %45 = call ptr @H5VL_vol_object_verify(i64 noundef %0, i32 noundef 1) #6
  %46 = icmp eq ptr %45, null
  br i1 %46, label %47, label %51, !prof !14

47:                                               ; preds = %44
  %48 = load i64, ptr @H5E_ARGS_g, align 8, !tbaa !11
  %49 = load i64, ptr @H5E_BADVALUE_g, align 8, !tbaa !11
  %50 = call i32 (ptr, ptr, i32, i64, i64, ptr, ...) @H5E_printf_stack(ptr noundef nonnull @.str, ptr noundef nonnull @__func__.H5Fget_metadata_read_retry_info, i32 noundef 2107, i64 noundef %48, i64 noundef %49, ptr noundef nonnull @.str.45) #6
  br label %.thread30

51:                                               ; preds = %44
  store ptr %1, ptr %4, align 8, !tbaa !18
  store i32 12, ptr %3, align 8, !tbaa !28
  %52 = getelementptr inbounds nuw i8, ptr %3, i64 8
  store ptr %4, ptr %52, align 8, !tbaa !30
  %53 = load i64, ptr @H5P_LST_DATASET_XFER_ID_g, align 8, !tbaa !11
  %54 = call i32 @H5VL_file_optional(ptr noundef nonnull %45, ptr noundef nonnull %3, i64 noundef %53, ptr noundef null) #6
  %55 = icmp slt i32 %54, 0
  br i1 %55, label %56, label %61, !prof !14

56:                                               ; preds = %51
  %57 = load i64, ptr @H5E_FILE_g, align 8, !tbaa !11
  %58 = load i64, ptr @H5E_CANTGET_g, align 8, !tbaa !11
  %59 = call i32 (ptr, ptr, i32, i64, i64, ptr, ...) @H5E_printf_stack(ptr noundef nonnull @.str, ptr noundef nonnull @__func__.H5Fget_metadata_read_retry_info, i32 noundef 2116, i64 noundef %57, i64 noundef %58, ptr noundef nonnull @.str.97) #6
  br label %.thread30

.thread30:                                        ; preds = %40, %56, %47
  %60 = call i32 @H5CX_pop(i1 noundef zeroext true) #6
  br label %.thread24

61:                                               ; preds = %51
  %62 = call i32 @H5CX_pop(i1 noundef zeroext true) #6
  br label %64

.thread24:                                        ; preds = %34, %27, %14, %.thread30
  %63 = call i32 @H5E_dump_api_stack() #6
  br label %64

64:                                               ; preds = %61, %.thread24
  %.0131927 = phi i32 [ -1, %.thread24 ], [ 0, %61 ]
  call void @llvm.lifetime.end.p0(i64 480, ptr nonnull %5) #6
  call void @llvm.lifetime.end.p0(i64 40, ptr nonnull %4) #6
  call void @llvm.lifetime.end.p0(i64 16, ptr nonnull %3) #6
  ret i32 %.0131927
}